target datalayout = "e-m:e-p270:32:32-p271:32:32-p272:64:64-i64:64-i128:128-f80:128-n8:16:32:64-S128"
target triple = "x86_64-pc-linux-gnu"

; Function Attrs: inlinehint mustprogress nounwind uwtable
define linkonce_odr noundef float @_ZSt3powff(float noundef %0, float noundef %1) #10 comdat {
  %3 = alloca float, align 4
  %4 = alloca float, align 4
  store float %0, ptr %3, align 4, !tbaa !31
  store float %1, ptr %4, align 4, !tbaa !31
  %5 = load float, ptr %3, align 4, !tbaa !31
  %6 = load float, ptr %4, align 4, !tbaa !31
  %7 = call float @powf(float noundef %5, float noundef %6) #3, !tbaa !34
  ret float %7
}

; Function Attrs: mustprogress uwtable
define hidden noundef float @_ZN19OpenColorIO_v2_5dev8compressEffff(float noundef %0, float noundef %1, float noundef %2, float noundef %3) #6 {
  %5 = alloca float, align 4
  %6 = alloca float, align 4
  %7 = alloca float, align 4
  %8 = alloca float, align 4
  %9 = alloca float, align 4
  %10 = alloca float, align 4
  store float %0, ptr %5, align 4, !tbaa !31
  store float %1, ptr %6, align 4, !tbaa !31
  store float %2, ptr %7, align 4, !tbaa !31
  store float %3, ptr %8, align 4, !tbaa !31
  call void @llvm.lifetime.start.p0(i64 4, ptr %9) #3
  %11 = load float, ptr %5, align 4, !tbaa !31
  %12 = load float, ptr %6, align 4, !tbaa !31
  %13 = fsub float %11, %12
  %14 = load float, ptr %7, align 4, !tbaa !31
  %15 = fdiv float %13, %14
  store float %15, ptr %9, align 4, !tbaa !31
  call void @llvm.lifetime.start.p0(i64 4, ptr %10) #3
  %16 = load float, ptr %9, align 4, !tbaa !31
  %17 = load float, ptr %8, align 4, !tbaa !31
  %18 = call noundef float @_ZSt3powff(float noundef %16, float noundef %17)
  store float %18, ptr %10, align 4, !tbaa !31
  %19 = load float, ptr %6, align 4, !tbaa !31
  %20 = load float, ptr %7, align 4, !tbaa !31
  %21 = load float, ptr %9, align 4, !tbaa !31
  %22 = fmul float %20, %21
  %23 = load float, ptr %10, align 4, !tbaa !31
  %24 = fadd float 1.000000e+00, %23
  %25 = load float, ptr %8, align 4, !tbaa !31
  %26 = fdiv float 1.000000e+00, %25
  %27 = call noundef float @_ZSt3powff(float noundef %24, float noundef %26)
  %28 = fdiv float %22, %27
  %29 = fadd float %19, %28
  call void @llvm.lifetime.end.p0(i64 4, ptr %10) #3
  call void @llvm.lifetime.end.p0(i64 4, ptr %9) #3
  ret float %29
}