; Function Attrs: mustprogress nofree nounwind willreturn memory(write) uwtable
define hidden noundef float @_ZN19OpenColorIO_v2_5dev8compressEffff(float noundef %0, float noundef %1, float noundef %2, float noundef %3) local_unnamed_addr #7 {
  %5 = fsub float %0, %1
  %6 = fdiv float %5, %2
  %7 = tail call noundef float @powf(float noundef %6, float noundef %3) #28, !tbaa !14
  %8 = fmul float %2, %6
  %9 = fadd float %7, 1.000000e+00
  %10 = fdiv float 1.000000e+00, %3
  %11 = tail call noundef float @powf(float noundef %9, float noundef %10) #28, !tbaa !14
  %12 = fdiv float %8, %11
  %13 = fadd float %1, %12
  ret float %13
}